target datalayout = "e-m:e-p270:32:32-p271:32:32-p272:64:64-i64:64-i128:128-f80:128-n8:16:32:64-S128"
target triple = "x86_64-pc-linux-gnu"

%struct.X11GraphicsConfigIDs = type { ptr, ptr }
%struct.JNINativeInterface_ = type { ptr, ptr, ptr, ptr, ptr, ptr, ptr, ptr, ptr, ptr, ptr, ptr, ptr, ptr, ptr, ptr, ptr, ptr, ptr, ptr, ptr, ptr, ptr, ptr, ptr, ptr, ptr, ptr, ptr, ptr, ptr, ptr, ptr, ptr, ptr, ptr, ptr, ptr, ptr, ptr, ptr, ptr, ptr, ptr, ptr, ptr, ptr, ptr, ptr, ptr, ptr, ptr, ptr, ptr, ptr, ptr, ptr, ptr, ptr, ptr, ptr, ptr, ptr, ptr, ptr, ptr, ptr, ptr, ptr, ptr, ptr, ptr, ptr, ptr, ptr, ptr, ptr, ptr, ptr, ptr, ptr, ptr, ptr, ptr, ptr, ptr, ptr, ptr, ptr, ptr, ptr, ptr, ptr, ptr, ptr, ptr, ptr, ptr, ptr, ptr, ptr, ptr, ptr, ptr, ptr, ptr, ptr, ptr, ptr, ptr, ptr, ptr, ptr, ptr, ptr, ptr, ptr, ptr, ptr, ptr, ptr, ptr, ptr, ptr, ptr, ptr, ptr, ptr, ptr, ptr, ptr, ptr, ptr, ptr, ptr, ptr, ptr, ptr, ptr, ptr, ptr, ptr, ptr, ptr, ptr, ptr, ptr, ptr, ptr, ptr, ptr, ptr, ptr, ptr, ptr, ptr, ptr, ptr, ptr, ptr, ptr, ptr, ptr, ptr, ptr, ptr, ptr, ptr, ptr, ptr, ptr, ptr, ptr, ptr, ptr, ptr, ptr, ptr, ptr, ptr, ptr, ptr, ptr, ptr, ptr, ptr, ptr, ptr, ptr, ptr, ptr, ptr, ptr, ptr, ptr, ptr, ptr, ptr, ptr, ptr, ptr, ptr, ptr, ptr, ptr, ptr, ptr, ptr, ptr, ptr, ptr, ptr, ptr, ptr, ptr, ptr, ptr, ptr, ptr, ptr, ptr, ptr, ptr, ptr, ptr, ptr, ptr, ptr, ptr, ptr, ptr, ptr, ptr, ptr, ptr }
%struct._AwtGraphicsConfigData = type { i32, i64, %struct.XVisualInfo, i32, ptr, ptr, ptr, i64, i32, i32, ptr, i32, ptr, ptr, i32, %struct.XRenderPictFormat }
%struct.XVisualInfo = type { ptr, i64, i32, i32, i32, i64, i64, i64, i32, i32 }
%struct.XRenderPictFormat = type { i64, i32, i32, %struct.XRenderDirectFormat, i64 }
%struct.XRenderDirectFormat = type { i16, i16, i16, i16, i16, i16, i16, i16 }

@tkClass = external global ptr, align 8
@awtLockMID = external global ptr, align 8
@awtUnlockMID = external global ptr, align 8
@x11GraphicsConfigIDs = external global %struct.X11GraphicsConfigIDs, align 8
@awt_display = external global ptr, align 8

; Function Attrs: nounwind uwtable
define void @Java_sun_awt_X11_XRobotPeer_mouseMoveImpl(ptr noundef %0, ptr noundef %1, ptr noundef %2, i32 noundef %3, i32 noundef %4) #0 {
  %6 = alloca ptr, align 8
  %7 = alloca ptr, align 8
  %8 = alloca ptr, align 8
  %9 = alloca i32, align 4
  %10 = alloca i32, align 4
  %11 = alloca ptr, align 8
  %12 = alloca ptr, align 8
  store ptr %0, ptr %6, align 8
  store ptr %1, ptr %7, align 8
  store ptr %2, ptr %8, align 8
  store i32 %3, ptr %9, align 4
  store i32 %4, ptr %10, align 4
  br label %13

13:                                               ; preds = %5
  %14 = load ptr, ptr %6, align 8
  %15 = load ptr, ptr %14, align 8
  %16 = getelementptr inbounds %struct.JNINativeInterface_, ptr %15, i32 0, i32 228
  %17 = load ptr, ptr %16, align 8
  %18 = load ptr, ptr %6, align 8
  %19 = call zeroext i8 %17(ptr noundef %18)
  %20 = icmp ne i8 %19, 0
  br i1 %20, label %21, label %27

21:                                               ; preds = %13
  %22 = load ptr, ptr %6, align 8
  %23 = load ptr, ptr %22, align 8
  %24 = getelementptr inbounds %struct.JNINativeInterface_, ptr %23, i32 0, i32 17
  %25 = load ptr, ptr %24, align 8
  %26 = load ptr, ptr %6, align 8
  call void %25(ptr noundef %26)
  br label %27

27:                                               ; preds = %21, %13
  %28 = load ptr, ptr %6, align 8
  %29 = load ptr, ptr %28, align 8
  %30 = getelementptr inbounds %struct.JNINativeInterface_, ptr %29, i32 0, i32 141
  %31 = load ptr, ptr %30, align 8
  %32 = load ptr, ptr %6, align 8
  %33 = load ptr, ptr @tkClass, align 8
  %34 = load ptr, ptr @awtLockMID, align 8
  call void (ptr, ptr, ptr, ...) %31(ptr noundef %32, ptr noundef %33, ptr noundef %34)
  %35 = load ptr, ptr %6, align 8
  %36 = load ptr, ptr %35, align 8
  %37 = getelementptr inbounds %struct.JNINativeInterface_, ptr %36, i32 0, i32 228
  %38 = load ptr, ptr %37, align 8
  %39 = load ptr, ptr %6, align 8
  %40 = call zeroext i8 %38(ptr noundef %39)
  %41 = icmp ne i8 %40, 0
  br i1 %41, label %42, label %48

42:                                               ; preds = %27
  %43 = load ptr, ptr %6, align 8
  %44 = load ptr, ptr %43, align 8
  %45 = getelementptr inbounds %struct.JNINativeInterface_, ptr %44, i32 0, i32 17
  %46 = load ptr, ptr %45, align 8
  %47 = load ptr, ptr %6, align 8
  call void %46(ptr noundef %47)
  br label %48

48:                                               ; preds = %42, %27
  br label %49

49:                                               ; preds = %48
  %50 = load ptr, ptr %6, align 8
  %51 = load ptr, ptr %50, align 8
  %52 = getelementptr inbounds %struct.JNINativeInterface_, ptr %51, i32 0, i32 101
  %53 = load ptr, ptr %52, align 8
  %54 = load ptr, ptr %6, align 8
  %55 = load ptr, ptr %8, align 8
  %56 = load ptr, ptr @x11GraphicsConfigIDs, align 8
  %57 = call i64 %53(ptr noundef %54, ptr noundef %55, ptr noundef %56)
  %58 = inttoptr i64 %57 to ptr
  store ptr %58, ptr %11, align 8
  %59 = load ptr, ptr @awt_display, align 8
  %60 = load ptr, ptr @awt_display, align 8
  %61 = load ptr, ptr %11, align 8
  %62 = getelementptr inbounds %struct._AwtGraphicsConfigData, ptr %61, i32 0, i32 2
  %63 = getelementptr inbounds %struct.XVisualInfo, ptr %62, i32 0, i32 2
  %64 = load i32, ptr %63, align 8
  %65 = call i64 @XRootWindow(ptr noundef %60, i32 noundef %64)
  %66 = load i32, ptr %9, align 4
  %67 = load i32, ptr %10, align 4
  %68 = call i32 @XWarpPointer(ptr noundef %59, i64 noundef 0, i64 noundef %65, i32 noundef 0, i32 noundef 0, i32 noundef 0, i32 noundef 0, i32 noundef %66, i32 noundef %67)
  %69 = load ptr, ptr @awt_display, align 8
  %70 = call i32 @XSync(ptr noundef %69, i32 noundef 0)
  br label %71

71:                                               ; preds = %49
  call void (...) @awt_output_flush()
  br label %72

72:                                               ; preds = %71
  %73 = load ptr, ptr %6, align 8
  %74 = load ptr, ptr %73, align 8
  %75 = getelementptr inbounds %struct.JNINativeInterface_, ptr %74, i32 0, i32 15
  %76 = load ptr, ptr %75, align 8
  %77 = load ptr, ptr %6, align 8
  %78 = call ptr %76(ptr noundef %77)
  store ptr %78, ptr %12, align 8
  %79 = icmp ne ptr %78, null
  br i1 %79, label %80, label %86

80:                                               ; preds = %72
  %81 = load ptr, ptr %6, align 8
  %82 = load ptr, ptr %81, align 8
  %83 = getelementptr inbounds %struct.JNINativeInterface_, ptr %82, i32 0, i32 17
  %84 = load ptr, ptr %83, align 8
  %85 = load ptr, ptr %6, align 8
  call void %84(ptr noundef %85)
  br label %86

86:                                               ; preds = %80, %72
  %87 = load ptr, ptr %6, align 8
  %88 = load ptr, ptr %87, align 8
  %89 = getelementptr inbounds %struct.JNINativeInterface_, ptr %88, i32 0, i32 141
  %90 = load ptr, ptr %89, align 8
  %91 = load ptr, ptr %6, align 8
  %92 = load ptr, ptr @tkClass, align 8
  %93 = load ptr, ptr @awtUnlockMID, align 8
  call void (ptr, ptr, ptr, ...) %90(ptr noundef %91, ptr noundef %92, ptr noundef %93)
  %94 = load ptr, ptr %6, align 8
  %95 = load ptr, ptr %94, align 8
  %96 = getelementptr inbounds %struct.JNINativeInterface_, ptr %95, i32 0, i32 228
  %97 = load ptr, ptr %96, align 8
  %98 = load ptr, ptr %6, align 8
  %99 = call zeroext i8 %97(ptr noundef %98)
  %100 = icmp ne i8 %99, 0
  br i1 %100, label %101, label %107

101:                                              ; preds = %86
  %102 = load ptr, ptr %6, align 8
  %103 = load ptr, ptr %102, align 8
  %104 = getelementptr inbounds %struct.JNINativeInterface_, ptr %103, i32 0, i32 17
  %105 = load ptr, ptr %104, align 8
  %106 = load ptr, ptr %6, align 8
  call void %105(ptr noundef %106)
  br label %107

107:                                              ; preds = %101, %86
  %108 = load ptr, ptr %12, align 8
  %109 = icmp ne ptr %108, null
  br i1 %109, label %110, label %118

110:                                              ; preds = %107
  %111 = load ptr, ptr %6, align 8
  %112 = load ptr, ptr %111, align 8
  %113 = getelementptr inbounds %struct.JNINativeInterface_, ptr %112, i32 0, i32 13
  %114 = load ptr, ptr %113, align 8
  %115 = load ptr, ptr %6, align 8
  %116 = load ptr, ptr %12, align 8
  %117 = call i32 %114(ptr noundef %115, ptr noundef %116)
  br label %118

118:                                              ; preds = %110, %107
  br label %119

119:                                              ; preds = %118
  br label %120

120:                                              ; preds = %119
  ret void
}