; Function Attrs: nounwind uwtable
define void @Java_sun_awt_X11_XRobotPeer_mouseMoveImpl(ptr noundef %0, ptr nocapture noundef readnone %1, ptr noundef %2, i32 noundef %3, i32 noundef %4) local_unnamed_addr #0 {
  %6 = load ptr, ptr %0, align 8
  %7 = getelementptr inbounds i8, ptr %6, i64 1824
  %8 = load ptr, ptr %7, align 8
  %9 = tail call zeroext i8 %8(ptr noundef nonnull %0) #8
  %.not = icmp eq i8 %9, 0
  br i1 %.not, label %14, label %10

10:                                               ; preds = %5
  %11 = load ptr, ptr %0, align 8
  %12 = getelementptr inbounds i8, ptr %11, i64 136
  %13 = load ptr, ptr %12, align 8
  tail call void %13(ptr noundef nonnull %0) #8
  br label %14

14:                                               ; preds = %10, %5
  %15 = load ptr, ptr %0, align 8
  %16 = getelementptr inbounds i8, ptr %15, i64 1128
  %17 = load ptr, ptr %16, align 8
  %18 = load ptr, ptr @tkClass, align 8
  %19 = load ptr, ptr @awtLockMID, align 8
  tail call void (ptr, ptr, ptr, ...) %17(ptr noundef nonnull %0, ptr noundef %18, ptr noundef %19) #8
  %20 = load ptr, ptr %0, align 8
  %21 = getelementptr inbounds i8, ptr %20, i64 1824
  %22 = load ptr, ptr %21, align 8
  %23 = tail call zeroext i8 %22(ptr noundef nonnull %0) #8
  %.not29 = icmp eq i8 %23, 0
  br i1 %.not29, label %28, label %24

24:                                               ; preds = %14
  %25 = load ptr, ptr %0, align 8
  %26 = getelementptr inbounds i8, ptr %25, i64 136
  %27 = load ptr, ptr %26, align 8
  tail call void %27(ptr noundef nonnull %0) #8
  br label %28

28:                                               ; preds = %14, %24
  %29 = load ptr, ptr %0, align 8
  %30 = getelementptr inbounds i8, ptr %29, i64 808
  %31 = load ptr, ptr %30, align 8
  %32 = load ptr, ptr @x11GraphicsConfigIDs, align 8
  %33 = tail call i64 %31(ptr noundef nonnull %0, ptr noundef %2, ptr noundef %32) #8
  %34 = inttoptr i64 %33 to ptr
  %35 = load ptr, ptr @awt_display, align 8
  %36 = getelementptr inbounds i8, ptr %34, i64 32
  %37 = load i32, ptr %36, align 8
  %38 = tail call i64 @XRootWindow(ptr noundef %35, i32 noundef %37) #8
  %39 = tail call i32 @XWarpPointer(ptr noundef %35, i64 noundef 0, i64 noundef %38, i32 noundef 0, i32 noundef 0, i32 noundef 0, i32 noundef 0, i32 noundef %3, i32 noundef %4) #8
  %40 = load ptr, ptr @awt_display, align 8
  %41 = tail call i32 @XSync(ptr noundef %40, i32 noundef 0) #8
  tail call void (...) @awt_output_flush() #8
  %42 = load ptr, ptr %0, align 8
  %43 = getelementptr inbounds i8, ptr %42, i64 120
  %44 = load ptr, ptr %43, align 8
  %45 = tail call ptr %44(ptr noundef nonnull %0) #8
  %.not30 = icmp eq ptr %45, null
  br i1 %.not30, label %50, label %46

46:                                               ; preds = %28
  %47 = load ptr, ptr %0, align 8
  %48 = getelementptr inbounds i8, ptr %47, i64 136
  %49 = load ptr, ptr %48, align 8
  tail call void %49(ptr noundef nonnull %0) #8
  br label %50

50:                                               ; preds = %46, %28
  %51 = load ptr, ptr %0, align 8
  %52 = getelementptr inbounds i8, ptr %51, i64 1128
  %53 = load ptr, ptr %52, align 8
  %54 = load ptr, ptr @tkClass, align 8
  %55 = load ptr, ptr @awtUnlockMID, align 8
  tail call void (ptr, ptr, ptr, ...) %53(ptr noundef nonnull %0, ptr noundef %54, ptr noundef %55) #8
  %56 = load ptr, ptr %0, align 8
  %57 = getelementptr inbounds i8, ptr %56, i64 1824
  %58 = load ptr, ptr %57, align 8
  %59 = tail call zeroext i8 %58(ptr noundef nonnull %0) #8
  %.not31 = icmp eq i8 %59, 0
  br i1 %.not31, label %64, label %60

60:                                               ; preds = %50
  %61 = load ptr, ptr %0, align 8
  %62 = getelementptr inbounds i8, ptr %61, i64 136
  %63 = load ptr, ptr %62, align 8
  tail call void %63(ptr noundef nonnull %0) #8
  br label %64

64:                                               ; preds = %60, %50
  br i1 %.not30, label %70, label %65

65:                                               ; preds = %64
  %66 = load ptr, ptr %0, align 8
  %67 = getelementptr inbounds i8, ptr %66, i64 104
  %68 = load ptr, ptr %67, align 8
  %69 = tail call i32 %68(ptr noundef nonnull %0, ptr noundef nonnull %45) #8
  br label %70

70:                                               ; preds = %65, %64
  ret void
}